(lp0
ccopy_reg
_reconstructor
p1
(cedeposit.amqp.aleph.datastructures.alephrecord
AlephRecord
p2
c__builtin__
tuple
p3
(S'nkc'
p4
S'CZE01'
p5
S'002114512'
p6
S'<?xml version = "1.0" encoding = "UTF-8"?>\n<present>\n<record>\n<record_header>\n<set_entry>000000001</set_entry>\n</record_header>\n<doc_number>002114512</doc_number>\n<metadata>\n<oai_marc>\n<fixfield id="LDR">-----nam-a22------a-4500</fixfield>\n<fixfield id="FMT">BK</fixfield>\n<fixfield id="001">nkc20102114512</fixfield>\n<fixfield id="003">CZ-PrNK</fixfield>\n<fixfield id="005">20111103145939.0</fixfield>\n<fixfield id="007">ta</fixfield>\n<fixfield id="008">100630s2010----xr-----g------000-j-cze--</fixfield>\n<varfield id="015" i1=" " i2=" ">\n<subfield label="a">cnb002114512</subfield>\n</varfield>\n<varfield id="020" i1=" " i2=" ">\n<subfield label="a">978-80-243-4116-3</subfield>\n<subfield label="q">(bro\xc5\xbe.) :</subfield>\n<subfield label="c">K\xc4\x8d 37,00</subfield>\n</varfield>\n<varfield id="035" i1=" " i2=" ">\n<subfield label="a">(OCoLC)670479870</subfield>\n</varfield>\n<varfield id="040" i1=" " i2=" ">\n<subfield label="a">OLA001</subfield>\n<subfield label="b">cze</subfield>\n</varfield>\n<varfield id="041" i1="1" i2=" ">\n<subfield label="a">cze</subfield>\n<subfield label="h">ger</subfield>\n</varfield>\n<varfield id="072" i1=" " i2="7">\n<subfield label="a">821-31/-34</subfield>\n<subfield label="x">Milostn\xc3\xa1, dobrodru\xc5\xben\xc3\xa1, fantastick\xc3\xa1 pr\xc3\xb3za</subfield>\n<subfield label="2">Konspekt</subfield>\n<subfield label="9">25</subfield>\n</varfield>\n<varfield id="080" i1=" " i2=" ">\n<subfield label="a">821-322.5</subfield>\n<subfield label="2">MRF</subfield>\n</varfield>\n<varfield id="080" i1=" " i2=" ">\n<subfield label="a">(0:82-322.5)</subfield>\n<subfield label="2">MRF</subfield>\n</varfield>\n<varfield id="100" i1="1" i2=" ">\n<subfield label="a">Kaiser, Jenny</subfield>\n<subfield label="7">ola2003188686</subfield>\n<subfield label="4">aut</subfield>\n</varfield>\n<varfield id="245" i1="1" i2="0">\n<subfield label="a">L\xc3\xa9to na z\xc3\xa1mku /</subfield>\n<subfield label="c">Jenny Kayser [sic]</subfield>\n</varfield>\n<varfield id="260" i1=" " i2=" ">\n<subfield label="a">Brno :</subfield>\n<subfield label="b">MOBA,</subfield>\n<subfield label="c">c2010</subfield>\n</varfield>\n<varfield id="300" i1=" " i2=" ">\n<subfield label="a">50 s. ;</subfield>\n<subfield label="c">23 cm</subfield>\n</varfield>\n<varfield id="490" i1="1" i2=" ">\n<subfield label="a">Zlat\xc3\xa1 r\xc5\xaf\xc5\xbee ;</subfield>\n<subfield label="v">sv. 204</subfield>\n</varfield>\n<varfield id="500" i1=" " i2=" ">\n<subfield label="a">P\xc5\x99elo\xc5\xbeeno z n\xc4\x9bm\xc4\x8diny</subfield>\n</varfield>\n<varfield id="655" i1=" " i2="7">\n<subfield label="a">milostn\xc3\xa9 pov\xc3\xaddky</subfield>\n<subfield label="7">fd132834</subfield>\n<subfield label="2">czenas</subfield>\n</varfield>\n<varfield id="655" i1=" " i2="9">\n<subfield label="a">love short stories</subfield>\n<subfield label="2">eczenas</subfield>\n</varfield>\n<varfield id="830" i1=" " i2="0">\n<subfield label="a">Zlat\xc3\xa1 r\xc5\xaf\xc5\xbee</subfield>\n</varfield>\n<varfield id="910" i1=" " i2=" ">\n<subfield label="a">ABA001</subfield>\n</varfield>\n<varfield id="998" i1=" " i2=" ">\n<subfield label="a">http://aleph.nkp.cz/F/?func=direct&amp;doc_number=002114512&amp;local_base=NKC</subfield>\n</varfield>\n</oai_marc>\n</metadata>\n</record>\n<session-id>5SDJD8C7RSMPL8RDBNGV7MR5DJU6CM2BN8YHGA3A853LF5VVL9</session-id>\n</present>\n '
p7
g1
(cedeposit.amqp.aleph.datastructures.epublication
EPublication
p8
g3
((lp9
S'978-80-243-4116-3'
p10
aS'L\xc3\xa9to na z\xc3\xa1mku /'
p11
S''
p12
g12
S'K\xc4\x8d 37,00'
p13
g12
g12
S'MOBA,'
p14
S'c2010'
p15
g12
g1
(cedeposit.amqp.aleph.marcxml
MarcSubrecord
p16
c__builtin__
str
p17
S'OLA001'
p18
tp19
Rp20
(dp21
S'other_subfields'
p22
(dp23
S'i1'
p24
S' '
p25
sS'a'
p26
(lp27
g18
asS'i2'
p28
g25
sS'b'
p29
(lp30
S'cze'
p31
assS'ind2'
p32
g25
sS'ind1'
p33
g25
sS'arg'
p34
g18
sbS'23 cm'
p35
g12
S'Brno :'
p36
(lp37
(lp38
g1
(cedeposit.amqp.aleph.datastructures.epublication
Author
p39
g3
(S'Jenny'
p40
S'Kaiser'
p41
g12
tp42
tp43
Rp44
a(lp45
S'http://aleph.nkp.cz/F/?func=direct&doc_number=002114512&local_base=NKC'
p46
tp47
tp48
Rp49
g1
(cedeposit.amqp.aleph.datastructures.semanticinfo
SemanticInfo
p50
g3
(I00
I00
I00
I00
I00
I00
tp51
tp52
Rp53
tp54
tp55
Rp56
a.